; ModuleID = '7/863.c'
source_filename = "7/863.c"
target datalayout = "e-m:e-p270:32:32-p271:32:32-p272:64:64-i64:64-f80:128-n8:16:32:64-S128"
target triple = "x86_64-pc-linux-gnu"

; Function Attrs: noinline nounwind uwtable
define dso_local void @main() #0 {
  %1 = alloca [256 x i8], align 16
  %2 = alloca [256 x i8], align 16
  %3 = alloca [256 x i8], align 16
  %4 = alloca i32, align 4
  %5 = alloca i32, align 4
  %6 = alloca i32, align 4
  %7 = alloca i32, align 4
  %8 = alloca i32, align 4
  %9 = alloca i32, align 4
  %10 = alloca i32, align 4
  %11 = alloca i32, align 4
  %12 = getelementptr inbounds [256 x i8], [256 x i8]* %1, i64 0, i64 0
  %13 = call i32 (i8*, ...) bitcast (i32 (...)* @gets to i32 (i8*, ...)*)(i8* %12)
  %14 = getelementptr inbounds [256 x i8], [256 x i8]* %2, i64 0, i64 0
  %15 = call i32 (i8*, ...) bitcast (i32 (...)* @gets to i32 (i8*, ...)*)(i8* %14)
  %16 = getelementptr inbounds [256 x i8], [256 x i8]* %3, i64 0, i64 0
  %17 = call i32 (i8*, ...) bitcast (i32 (...)* @gets to i32 (i8*, ...)*)(i8* %16)
  %18 = getelementptr inbounds [256 x i8], [256 x i8]* %1, i64 0, i64 0
  %19 = call i64 @strlen(i8* %18) #3
  %20 = trunc i64 %19 to i32
  store i32 %20, i32* %4, align 4
  %21 = getelementptr inbounds [256 x i8], [256 x i8]* %2, i64 0, i64 0
  %22 = call i64 @strlen(i8* %21) #3
  %23 = trunc i64 %22 to i32
  store i32 %23, i32* %5, align 4
  %24 = getelementptr inbounds [256 x i8], [256 x i8]* %3, i64 0, i64 0
  %25 = call i64 @strlen(i8* %24) #3
  %26 = trunc i64 %25 to i32
  store i32 %26, i32* %6, align 4
  store i32 1, i32* %10, align 4
  store i32 0, i32* %9, align 4
  br label %27

27:                                               ; preds = %105, %0
  %28 = load i32, i32* %9, align 4
  %29 = load i32, i32* %4, align 4
  %30 = icmp slt i32 %28, %29
  br i1 %30, label %31, label %108

31:                                               ; preds = %27
  %32 = load i32, i32* %9, align 4
  %33 = sext i32 %32 to i64
  %34 = getelementptr inbounds [256 x i8], [256 x i8]* %1, i64 0, i64 %33
  %35 = load i8, i8* %34, align 1
  %36 = sext i8 %35 to i32
  %37 = getelementptr inbounds [256 x i8], [256 x i8]* %2, i64 0, i64 0
  %38 = load i8, i8* %37, align 16
  %39 = sext i8 %38 to i32
  %40 = icmp eq i32 %36, %39
  br i1 %40, label %41, label %104

41:                                               ; preds = %31
  store i32 1, i32* %10, align 4
  %42 = load i32, i32* %9, align 4
  store i32 %42, i32* %7, align 4
  store i32 0, i32* %8, align 4
  br label %43

43:                                               ; preds = %69, %41
  %44 = load i32, i32* %7, align 4
  %45 = load i32, i32* %5, align 4
  %46 = load i32, i32* %9, align 4
  %47 = add nsw i32 %45, %46
  %48 = icmp slt i32 %44, %47
  %49 = zext i1 %48 to i32
  %50 = load i32, i32* %8, align 4
  %51 = load i32, i32* %5, align 4
  %52 = icmp slt i32 %50, %51
  br i1 %52, label %53, label %74

53:                                               ; preds = %43
  %54 = load i32, i32* %7, align 4
  %55 = sext i32 %54 to i64
  %56 = getelementptr inbounds [256 x i8], [256 x i8]* %1, i64 0, i64 %55
  %57 = load i8, i8* %56, align 1
  %58 = sext i8 %57 to i32
  %59 = load i32, i32* %8, align 4
  %60 = sext i32 %59 to i64
  %61 = getelementptr inbounds [256 x i8], [256 x i8]* %2, i64 0, i64 %60
  %62 = load i8, i8* %61, align 1
  %63 = sext i8 %62 to i32
  %64 = sub nsw i32 %58, %63
  store i32 %64, i32* %11, align 4
  %65 = load i32, i32* %11, align 4
  %66 = icmp ne i32 %65, 0
  br i1 %66, label %67, label %68

67:                                               ; preds = %53
  store i32 0, i32* %10, align 4
  br label %68

68:                                               ; preds = %67, %53
  br label %69

69:                                               ; preds = %68
  %70 = load i32, i32* %7, align 4
  %71 = add nsw i32 %70, 1
  store i32 %71, i32* %7, align 4
  %72 = load i32, i32* %8, align 4
  %73 = add nsw i32 %72, 1
  store i32 %73, i32* %8, align 4
  br label %43

74:                                               ; preds = %43
  %75 = load i32, i32* %10, align 4
  %76 = icmp ne i32 %75, 0
  br i1 %76, label %77, label %103

77:                                               ; preds = %74
  %78 = load i32, i32* %9, align 4
  store i32 %78, i32* %7, align 4
  store i32 0, i32* %8, align 4
  br label %79

79:                                               ; preds = %97, %77
  %80 = load i32, i32* %8, align 4
  %81 = load i32, i32* %6, align 4
  %82 = icmp slt i32 %80, %81
  %83 = zext i1 %82 to i32
  %84 = load i32, i32* %7, align 4
  %85 = load i32, i32* %5, align 4
  %86 = load i32, i32* %9, align 4
  %87 = add nsw i32 %85, %86
  %88 = icmp slt i32 %84, %87
  br i1 %88, label %89, label %102

89:                                               ; preds = %79
  %90 = load i32, i32* %8, align 4
  %91 = sext i32 %90 to i64
  %92 = getelementptr inbounds [256 x i8], [256 x i8]* %3, i64 0, i64 %91
  %93 = load i8, i8* %92, align 1
  %94 = load i32, i32* %7, align 4
  %95 = sext i32 %94 to i64
  %96 = getelementptr inbounds [256 x i8], [256 x i8]* %1, i64 0, i64 %95
  store i8 %93, i8* %96, align 1
  br label %97

97:                                               ; preds = %89
  %98 = load i32, i32* %7, align 4
  %99 = add nsw i32 %98, 1
  store i32 %99, i32* %7, align 4
  %100 = load i32, i32* %8, align 4
  %101 = add nsw i32 %100, 1
  store i32 %101, i32* %8, align 4
  br label %79

102:                                              ; preds = %79
  br label %108

103:                                              ; preds = %74
  br label %104

104:                                              ; preds = %103, %31
  br label %105

105:                                              ; preds = %104
  %106 = load i32, i32* %9, align 4
  %107 = add nsw i32 %106, 1
  store i32 %107, i32* %9, align 4
  br label %27

108:                                              ; preds = %102, %27
  %109 = getelementptr inbounds [256 x i8], [256 x i8]* %1, i64 0, i64 0
  %110 = call i32 @puts(i8* %109)
  ret void
}

declare dso_local i32 @gets(...) #1

; Function Attrs: nounwind readonly
declare dso_local i64 @strlen(i8*) #2

declare dso_local i32 @puts(i8*) #1


!llvm.module.flags = !{!0}
!llvm.ident = !{!1}

!0 = !{i32 1, !"wchar_size", i32 4}
!1 = !{!"clang version 10.0.0-4ubuntu1 "}
